target datalayout = "e-m:e-p270:32:32-p271:32:32-p272:64:64-i64:64-i128:128-f80:128-n8:16:32:64-S128"
target triple = "x86_64-pc-linux-gnu"

%struct.FDCTDSPContext = type { ptr, ptr }
%struct.PixblockDSPContext = type { ptr, ptr, ptr, ptr }
%struct.MECmpContext = type { ptr, [6 x ptr], [6 x ptr], [6 x ptr], [6 x ptr], [6 x ptr], [6 x ptr], [6 x ptr], [6 x ptr], [6 x ptr], [6 x ptr], [6 x ptr], [6 x ptr], [6 x ptr], [6 x ptr], [2 x [4 x ptr]], [6 x ptr] }
%struct.AVCodecContext = type { ptr, i32, i32, ptr, i32, i32, ptr, ptr, ptr, i64, i32, i32, ptr, i32, %struct.AVRational, %struct.AVRational, %struct.AVRational, i32, i32, i32, i32, i32, %struct.AVRational, i32, i32, i32, i32, i32, i32, i32, i32, i32, i32, i32, ptr, ptr, i32, float, float, float, float, float, float, float, float, float, i32, i32, i32, i32, i32, i32, i32, i32, i32, i32, i32, i32, ptr, ptr, ptr, i32, i32, i32, i32, i32, i32, i32, i32, i32, i32, %struct.AVChannelLayout, i32, i32, i32, i32, i32, i32, i32, i32, ptr, i32, i32, i32, float, float, i32, i32, i32, i32, i32, ptr, i64, i64, float, float, i32, i32, ptr, ptr, i32, i32, i32, i32, i32, ptr, ptr, ptr, ptr, i32, i32, [8 x i64], i32, i32, i32, i32, i32, i32, i32, ptr, ptr, i32, i32, i32, i32, i32, i32, i32, i32, i32, i32, ptr, ptr, i32, i32, ptr, ptr, ptr, ptr, i32, i32, i64, i32, i32, i64, ptr, i64, ptr, i32, ptr, i32 }
%struct.AVRational = type { i32, i32 }
%struct.AVChannelLayout = type { i32, i32, %union.anon.1, ptr }
%union.anon.1 = type { i64 }
%struct.DVEncContext = type { ptr, ptr, ptr, ptr, ptr, ptr, [2 x ptr], ptr, [1296 x %struct.DVwork_chunk], i32 }
%struct.DVwork_chunk = type { i16, [5 x i16] }

@.str.7 = private unnamed_addr constant [70 x i8] c"Only top-left chroma location is supported in DV, input value is: %s\0A\00", align 1
@.str.8 = private unnamed_addr constant [8 x i8] c"unknown\00", align 1
@.str.9 = private unnamed_addr constant [64 x i8] c"Found no DV profile for %ix%i %s video. Valid DV profiles are:\0A\00", align 1
@dvvideo_encode_init.init_static_once = internal global i32 0, align 4

; Function Attrs: cold nounwind optsize uwtable
define internal i32 @dvvideo_encode_init(ptr noundef %0) #0 {
  %2 = alloca i32, align 4
  %3 = alloca ptr, align 8
  %4 = alloca ptr, align 8
  %5 = alloca %struct.FDCTDSPContext, align 8
  %6 = alloca %struct.PixblockDSPContext, align 8
  %7 = alloca i32, align 4
  %8 = alloca ptr, align 8
  %9 = alloca i32, align 4
  %10 = alloca %struct.MECmpContext, align 8
  %11 = alloca [6 x ptr], align 16
  store ptr %0, ptr %3, align 8, !tbaa !4
  call void @llvm.lifetime.start.p0(i64 8, ptr %4) #9
  %12 = load ptr, ptr %3, align 8, !tbaa !4
  %13 = getelementptr inbounds nuw %struct.AVCodecContext, ptr %12, i32 0, i32 6
  %14 = load ptr, ptr %13, align 8, !tbaa !9
  store ptr %14, ptr %4, align 8, !tbaa !29
  call void @llvm.lifetime.start.p0(i64 16, ptr %5) #9
  call void @llvm.lifetime.start.p0(i64 32, ptr %6) #9
  call void @llvm.lifetime.start.p0(i64 4, ptr %7) #9
  %15 = load ptr, ptr %3, align 8, !tbaa !4
  %16 = load ptr, ptr %4, align 8, !tbaa !29
  %17 = getelementptr inbounds nuw %struct.DVEncContext, ptr %16, i32 0, i32 3
  store ptr %15, ptr %17, align 8, !tbaa !31
  %18 = load ptr, ptr %3, align 8, !tbaa !4
  %19 = getelementptr inbounds nuw %struct.AVCodecContext, ptr %18, i32 0, i32 29
  %20 = load i32, ptr %19, align 8, !tbaa !35
  %21 = icmp ne i32 %20, 3
  br i1 %21, label %22, label %44

22:                                               ; preds = %1
  call void @llvm.lifetime.start.p0(i64 8, ptr %8) #9
  %23 = load ptr, ptr %3, align 8, !tbaa !4
  %24 = getelementptr inbounds nuw %struct.AVCodecContext, ptr %23, i32 0, i32 29
  %25 = load i32, ptr %24, align 8, !tbaa !35
  %26 = call ptr @av_chroma_location_name(i32 noundef %25)
  store ptr %26, ptr %8, align 8, !tbaa !36
  %27 = load ptr, ptr %3, align 8, !tbaa !4
  %28 = load ptr, ptr %8, align 8, !tbaa !36
  %29 = icmp ne ptr %28, null
  br i1 %29, label %30, label %32

30:                                               ; preds = %22
  %31 = load ptr, ptr %8, align 8, !tbaa !36
  br label %33

32:                                               ; preds = %22
  br label %33

33:                                               ; preds = %32, %30
  %34 = phi ptr [ %31, %30 ], [ @.str.8, %32 ]
  call void (ptr, i32, ptr, ...) @av_log(ptr noundef %27, i32 noundef 24, ptr noundef @.str.7, ptr noundef %34)
  %35 = load ptr, ptr %3, align 8, !tbaa !4
  %36 = getelementptr inbounds nuw %struct.AVCodecContext, ptr %35, i32 0, i32 101
  %37 = load i32, ptr %36, align 4, !tbaa !37
  %38 = icmp sgt i32 %37, 0
  br i1 %38, label %39, label %40

39:                                               ; preds = %33
  store i32 -22, ptr %2, align 4
  store i32 1, ptr %9, align 4
  br label %41

40:                                               ; preds = %33
  store i32 0, ptr %9, align 4
  br label %41

41:                                               ; preds = %40, %39
  call void @llvm.lifetime.end.p0(i64 8, ptr %8) #9
  %42 = load i32, ptr %9, align 4
  switch i32 %42, label %131 [
    i32 0, label %43
  ]

43:                                               ; preds = %41
  br label %44

44:                                               ; preds = %43, %1
  %45 = load ptr, ptr %3, align 8, !tbaa !4
  %46 = getelementptr inbounds nuw %struct.AVCodecContext, ptr %45, i32 0, i32 18
  %47 = load i32, ptr %46, align 8, !tbaa !38
  %48 = load ptr, ptr %3, align 8, !tbaa !4
  %49 = getelementptr inbounds nuw %struct.AVCodecContext, ptr %48, i32 0, i32 19
  %50 = load i32, ptr %49, align 4, !tbaa !39
  %51 = load ptr, ptr %3, align 8, !tbaa !4
  %52 = getelementptr inbounds nuw %struct.AVCodecContext, ptr %51, i32 0, i32 23
  %53 = load i32, ptr %52, align 8, !tbaa !40
  %54 = load ptr, ptr %3, align 8, !tbaa !4
  %55 = getelementptr inbounds nuw %struct.AVCodecContext, ptr %54, i32 0, i32 14
  %56 = load i64, ptr %55, align 4
  %57 = call ptr @av_dv_codec_profile2(i32 noundef %47, i32 noundef %50, i32 noundef %53, i64 %56)
  %58 = load ptr, ptr %4, align 8, !tbaa !29
  %59 = getelementptr inbounds nuw %struct.DVEncContext, ptr %58, i32 0, i32 1
  store ptr %57, ptr %59, align 8, !tbaa !41
  %60 = load ptr, ptr %4, align 8, !tbaa !29
  %61 = getelementptr inbounds nuw %struct.DVEncContext, ptr %60, i32 0, i32 1
  %62 = load ptr, ptr %61, align 8, !tbaa !41
  %63 = icmp ne ptr %62, null
  br i1 %63, label %77, label %64

64:                                               ; preds = %44
  %65 = load ptr, ptr %3, align 8, !tbaa !4
  %66 = load ptr, ptr %3, align 8, !tbaa !4
  %67 = getelementptr inbounds nuw %struct.AVCodecContext, ptr %66, i32 0, i32 18
  %68 = load i32, ptr %67, align 8, !tbaa !38
  %69 = load ptr, ptr %3, align 8, !tbaa !4
  %70 = getelementptr inbounds nuw %struct.AVCodecContext, ptr %69, i32 0, i32 19
  %71 = load i32, ptr %70, align 4, !tbaa !39
  %72 = load ptr, ptr %3, align 8, !tbaa !4
  %73 = getelementptr inbounds nuw %struct.AVCodecContext, ptr %72, i32 0, i32 23
  %74 = load i32, ptr %73, align 8, !tbaa !40
  %75 = call ptr @av_get_pix_fmt_name(i32 noundef %74)
  call void (ptr, i32, ptr, ...) @av_log(ptr noundef %65, i32 noundef 16, ptr noundef @.str.9, i32 noundef %68, i32 noundef %71, ptr noundef %75)
  %76 = load ptr, ptr %3, align 8, !tbaa !4
  call void @ff_dv_print_profiles(ptr noundef %76, i32 noundef 16)
  store i32 -22, ptr %2, align 4
  store i32 1, ptr %9, align 4
  br label %131

77:                                               ; preds = %44
  %78 = load ptr, ptr %4, align 8, !tbaa !29
  %79 = getelementptr inbounds nuw %struct.DVEncContext, ptr %78, i32 0, i32 8
  %80 = getelementptr inbounds [1296 x %struct.DVwork_chunk], ptr %79, i64 0, i64 0
  %81 = load ptr, ptr %4, align 8, !tbaa !29
  %82 = getelementptr inbounds nuw %struct.DVEncContext, ptr %81, i32 0, i32 1
  %83 = load ptr, ptr %82, align 8, !tbaa !41
  call void @ff_dv_init_dynamic_tables(ptr noundef %80, ptr noundef %83)
  %84 = load ptr, ptr %3, align 8, !tbaa !4
  %85 = getelementptr inbounds nuw %struct.AVCodecContext, ptr %84, i32 0, i32 10
  %86 = load i32, ptr %85, align 8, !tbaa !42
  %87 = and i32 %86, 262144
  %88 = icmp ne i32 %87, 0
  br i1 %88, label %89, label %113

89:                                               ; preds = %77
  call void @llvm.lifetime.start.p0(i64 792, ptr %10) #9
  call void @llvm.lifetime.start.p0(i64 48, ptr %11) #9
  %90 = load ptr, ptr %3, align 8, !tbaa !4
  call void @ff_me_cmp_init(ptr noundef %10, ptr noundef %90)
  %91 = getelementptr inbounds [6 x ptr], ptr %11, i64 0, i64 0
  %92 = load ptr, ptr %3, align 8, !tbaa !4
  %93 = getelementptr inbounds nuw %struct.AVCodecContext, ptr %92, i32 0, i32 50
  %94 = load i32, ptr %93, align 8, !tbaa !43
  %95 = call i32 @ff_set_cmp(ptr noundef %10, ptr noundef %91, i32 noundef %94, i32 noundef 0)
  store i32 %95, ptr %7, align 4, !tbaa !44
  %96 = load i32, ptr %7, align 4, !tbaa !44
  %97 = icmp slt i32 %96, 0
  br i1 %97, label %98, label %100

98:                                               ; preds = %89
  %99 = load i32, ptr %7, align 4, !tbaa !44
  store i32 %99, ptr %2, align 4
  store i32 1, ptr %9, align 4
  br label %110

100:                                              ; preds = %89
  %101 = getelementptr inbounds [6 x ptr], ptr %11, i64 0, i64 5
  %102 = load ptr, ptr %101, align 8, !tbaa !45
  %103 = icmp ne ptr %102, null
  br i1 %103, label %105, label %104

104:                                              ; preds = %100
  store i32 -22, ptr %2, align 4
  store i32 1, ptr %9, align 4
  br label %110

105:                                              ; preds = %100
  %106 = getelementptr inbounds [6 x ptr], ptr %11, i64 0, i64 5
  %107 = load ptr, ptr %106, align 8, !tbaa !45
  %108 = load ptr, ptr %4, align 8, !tbaa !29
  %109 = getelementptr inbounds nuw %struct.DVEncContext, ptr %108, i32 0, i32 7
  store ptr %107, ptr %109, align 8, !tbaa !46
  store i32 0, ptr %9, align 4
  br label %110

110:                                              ; preds = %105, %104, %98
  call void @llvm.lifetime.end.p0(i64 48, ptr %11) #9
  call void @llvm.lifetime.end.p0(i64 792, ptr %10) #9
  %111 = load i32, ptr %9, align 4
  switch i32 %111, label %131 [
    i32 0, label %112
  ]

112:                                              ; preds = %110
  br label %113

113:                                              ; preds = %112, %77
  call void @llvm.memset.p0.i64(ptr align 8 %5, i8 0, i64 16, i1 false)
  call void @llvm.memset.p0.i64(ptr align 8 %6, i8 0, i64 32, i1 false)
  %114 = load ptr, ptr %3, align 8, !tbaa !4
  call void @ff_fdctdsp_init(ptr noundef %5, ptr noundef %114)
  %115 = load ptr, ptr %3, align 8, !tbaa !4
  call void @ff_pixblockdsp_init(ptr noundef %6, ptr noundef %115)
  %116 = getelementptr inbounds nuw %struct.PixblockDSPContext, ptr %6, i32 0, i32 0
  %117 = load ptr, ptr %116, align 8, !tbaa !47
  %118 = load ptr, ptr %4, align 8, !tbaa !29
  %119 = getelementptr inbounds nuw %struct.DVEncContext, ptr %118, i32 0, i32 5
  store ptr %117, ptr %119, align 8, !tbaa !49
  %120 = getelementptr inbounds nuw %struct.FDCTDSPContext, ptr %5, i32 0, i32 0
  %121 = load ptr, ptr %120, align 8, !tbaa !50
  %122 = load ptr, ptr %4, align 8, !tbaa !29
  %123 = getelementptr inbounds nuw %struct.DVEncContext, ptr %122, i32 0, i32 6
  %124 = getelementptr inbounds [2 x ptr], ptr %123, i64 0, i64 0
  store ptr %121, ptr %124, align 8, !tbaa !45
  %125 = getelementptr inbounds nuw %struct.FDCTDSPContext, ptr %5, i32 0, i32 1
  %126 = load ptr, ptr %125, align 8, !tbaa !52
  %127 = load ptr, ptr %4, align 8, !tbaa !29
  %128 = getelementptr inbounds nuw %struct.DVEncContext, ptr %127, i32 0, i32 6
  %129 = getelementptr inbounds [2 x ptr], ptr %128, i64 0, i64 1
  store ptr %126, ptr %129, align 8, !tbaa !45
  %130 = call i32 @pthread_once(ptr noundef @dvvideo_encode_init.init_static_once, ptr noundef @dv_vlc_map_tableinit)
  store i32 0, ptr %2, align 4
  store i32 1, ptr %9, align 4
  br label %131

131:                                              ; preds = %113, %110, %64, %41
  call void @llvm.lifetime.end.p0(i64 4, ptr %7) #9
  call void @llvm.lifetime.end.p0(i64 32, ptr %6) #9
  call void @llvm.lifetime.end.p0(i64 16, ptr %5) #9
  call void @llvm.lifetime.end.p0(i64 8, ptr %4) #9
  %132 = load i32, ptr %2, align 4
  ret i32 %132
}