; Function Attrs: cold nounwind optsize uwtable
define internal range(i32 -2147483648, 1) i32 @dvvideo_encode_init(ptr noundef %0) #0 {
  %2 = alloca %struct.FDCTDSPContext, align 8
  %3 = alloca %struct.PixblockDSPContext, align 8
  %4 = alloca %struct.MECmpContext, align 8
  %5 = alloca [6 x ptr], align 16
  %6 = getelementptr inbounds nuw i8, ptr %0, i64 32
  %7 = load ptr, ptr %6, align 8, !tbaa !4
  call void @llvm.lifetime.start.p0(i64 16, ptr nonnull %2) #8
  call void @llvm.lifetime.start.p0(i64 32, ptr nonnull %3) #8
  %8 = getelementptr inbounds nuw i8, ptr %7, i64 24
  store ptr %0, ptr %8, align 8, !tbaa !27
  %9 = getelementptr inbounds nuw i8, ptr %0, i64 160
  %10 = load i32, ptr %9, align 8, !tbaa !32
  %.not = icmp eq i32 %10, 3
  br i1 %.not, label %17, label %11

11:                                               ; preds = %1
  %12 = tail call ptr @av_chroma_location_name(i32 noundef %10) #8
  %.not42 = icmp eq ptr %12, null
  %13 = select i1 %.not42, ptr @.str.8, ptr %12
  tail call void (ptr, i32, ptr, ...) @av_log(ptr noundef nonnull %0, i32 noundef 24, ptr noundef nonnull @.str.7, ptr noundef nonnull %13) #8
  %14 = getelementptr inbounds nuw i8, ptr %0, i64 516
  %15 = load i32, ptr %14, align 4, !tbaa !33
  %16 = icmp slt i32 %15, 1
  br i1 %16, label %17, label %57

17:                                               ; preds = %11, %1
  %18 = getelementptr inbounds nuw i8, ptr %0, i64 112
  %19 = load i32, ptr %18, align 8, !tbaa !34
  %20 = getelementptr inbounds nuw i8, ptr %0, i64 116
  %21 = load i32, ptr %20, align 4, !tbaa !35
  %22 = getelementptr inbounds nuw i8, ptr %0, i64 136
  %23 = load i32, ptr %22, align 8, !tbaa !36
  %24 = getelementptr inbounds nuw i8, ptr %0, i64 84
  %25 = load i64, ptr %24, align 4
  %26 = tail call ptr @av_dv_codec_profile2(i32 noundef %19, i32 noundef %21, i32 noundef %23, i64 %25) #8
  %27 = getelementptr inbounds nuw i8, ptr %7, i64 8
  store ptr %26, ptr %27, align 8, !tbaa !37
  %.not43 = icmp eq ptr %26, null
  br i1 %.not43, label %28, label %33

28:                                               ; preds = %17
  %29 = load i32, ptr %18, align 8, !tbaa !34
  %30 = load i32, ptr %20, align 4, !tbaa !35
  %31 = load i32, ptr %22, align 8, !tbaa !36
  %32 = tail call ptr @av_get_pix_fmt_name(i32 noundef %31) #8
  tail call void (ptr, i32, ptr, ...) @av_log(ptr noundef nonnull %0, i32 noundef 16, ptr noundef nonnull @.str.9, i32 noundef %29, i32 noundef %30, ptr noundef %32) #8
  tail call void @ff_dv_print_profiles(ptr noundef nonnull %0, i32 noundef 16) #8
  br label %57

33:                                               ; preds = %17
  %34 = getelementptr inbounds nuw i8, ptr %7, i64 72
  tail call void @ff_dv_init_dynamic_tables(ptr noundef nonnull %34, ptr noundef nonnull %26) #8
  %35 = getelementptr inbounds nuw i8, ptr %0, i64 64
  %36 = load i32, ptr %35, align 8, !tbaa !38
  %37 = and i32 %36, 262144
  %.not44 = icmp eq i32 %37, 0
  br i1 %.not44, label %48, label %38

38:                                               ; preds = %33
  call void @llvm.lifetime.start.p0(i64 792, ptr nonnull %4) #8
  call void @llvm.lifetime.start.p0(i64 48, ptr nonnull %5) #8
  call void @ff_me_cmp_init(ptr noundef nonnull %4, ptr noundef nonnull %0) #8
  %39 = getelementptr inbounds nuw i8, ptr %0, i64 256
  %40 = load i32, ptr %39, align 8, !tbaa !39
  %41 = call i32 @ff_set_cmp(ptr noundef nonnull %4, ptr noundef nonnull %5, i32 noundef %40, i32 noundef 0) #8
  %42 = icmp slt i32 %41, 0
  br i1 %42, label %.thread, label %43

43:                                               ; preds = %38
  %44 = getelementptr inbounds nuw i8, ptr %5, i64 40
  %45 = load ptr, ptr %44, align 8, !tbaa !40
  %.not45 = icmp eq ptr %45, null
  br i1 %.not45, label %.thread, label %46

.thread:                                          ; preds = %38, %43
  %.3.ph = phi i32 [ -22, %43 ], [ %41, %38 ]
  call void @llvm.lifetime.end.p0(i64 48, ptr nonnull %5) #8
  call void @llvm.lifetime.end.p0(i64 792, ptr nonnull %4) #8
  br label %57

46:                                               ; preds = %43
  %47 = getelementptr inbounds nuw i8, ptr %7, i64 64
  store ptr %45, ptr %47, align 8, !tbaa !41
  call void @llvm.lifetime.end.p0(i64 48, ptr nonnull %5) #8
  call void @llvm.lifetime.end.p0(i64 792, ptr nonnull %4) #8
  br label %48

48:                                               ; preds = %46, %33
  call void @llvm.memset.p0.i64(ptr noundef nonnull align 8 dereferenceable(16) %2, i8 0, i64 16, i1 false)
  call void @llvm.memset.p0.i64(ptr noundef nonnull align 8 dereferenceable(32) %3, i8 0, i64 32, i1 false)
  call void @ff_fdctdsp_init(ptr noundef nonnull %2, ptr noundef nonnull %0) #8
  call void @ff_pixblockdsp_init(ptr noundef nonnull %3, ptr noundef nonnull %0) #8
  %49 = load ptr, ptr %3, align 8, !tbaa !42
  %50 = getelementptr inbounds nuw i8, ptr %7, i64 40
  store ptr %49, ptr %50, align 8, !tbaa !44
  %51 = load ptr, ptr %2, align 8, !tbaa !45
  %52 = getelementptr inbounds nuw i8, ptr %7, i64 48
  store ptr %51, ptr %52, align 8, !tbaa !40
  %53 = getelementptr inbounds nuw i8, ptr %2, i64 8
  %54 = load ptr, ptr %53, align 8, !tbaa !47
  %55 = getelementptr inbounds nuw i8, ptr %7, i64 56
  store ptr %54, ptr %55, align 8, !tbaa !40
  %56 = call i32 @pthread_once(ptr noundef nonnull @dvvideo_encode_init.init_static_once, ptr noundef nonnull @dv_vlc_map_tableinit) #8
  br label %57

57:                                               ; preds = %.thread, %11, %48, %28
  %.2 = phi i32 [ 0, %48 ], [ -22, %28 ], [ -22, %11 ], [ %.3.ph, %.thread ]
  call void @llvm.lifetime.end.p0(i64 32, ptr nonnull %3) #8
  call void @llvm.lifetime.end.p0(i64 16, ptr nonnull %2) #8
  ret i32 %.2
}